; Function Attrs: mustprogress uwtable
define dso_local void @_ZN4base20SampleVectorIterator4NextEv(ptr noundef nonnull align 8 dereferenceable(40) %this) unnamed_addr #0 align 2 personality ptr @__gxx_personality_v0 {
entry:
  %index_ = getelementptr inbounds i8, ptr %this, i64 32
  %0 = load i64, ptr %index_, align 8
  %inc = add i64 %0, 1
  store i64 %inc, ptr %index_, align 8
  %vtable.i = load ptr, ptr %this, align 8
  %vfn.i = getelementptr inbounds i8, ptr %vtable.i, i64 16
  %1 = load ptr, ptr %vfn.i, align 8
  %call.i = tail call noundef zeroext i1 %1(ptr noundef nonnull align 8 dereferenceable(40) %this)
  br i1 %call.i, label %_ZN4base20SampleVectorIterator16SkipEmptyBucketsEv.exit, label %while.cond.preheader.i

while.cond.preheader.i:                           ; preds = %entry
  %counts_size_.i = getelementptr inbounds i8, ptr %this, i64 16
  %2 = load i64, ptr %counts_size_.i, align 8
  %3 = load i64, ptr %index_, align 8
  %cmp1.i = icmp ult i64 %3, %2
  br i1 %cmp1.i, label %while.body.lr.ph.i, label %_ZN4base20SampleVectorIterator16SkipEmptyBucketsEv.exit

while.body.lr.ph.i:                               ; preds = %while.cond.preheader.i
  %counts_.i = getelementptr inbounds i8, ptr %this, i64 8
  %4 = load ptr, ptr %counts_.i, align 8
  br label %while.body.i

while.body.i:                                     ; preds = %if.end6.i, %while.body.lr.ph.i
  %5 = phi i64 [ %3, %while.body.lr.ph.i ], [ %inc.i, %if.end6.i ]
  %arrayidx.i = getelementptr inbounds i32, ptr %4, i64 %5
  %6 = load atomic volatile i32, ptr %arrayidx.i monotonic, align 4
  %cmp4.not.i = icmp eq i32 %6, 0
  br i1 %cmp4.not.i, label %if.end6.i, label %_ZN4base20SampleVectorIterator16SkipEmptyBucketsEv.exit

if.end6.i:                                        ; preds = %while.body.i
  %inc.i = add i64 %5, 1
  store i64 %inc.i, ptr %index_, align 8
  %exitcond.not.i = icmp eq i64 %inc.i, %2
  br i1 %exitcond.not.i, label %_ZN4base20SampleVectorIterator16SkipEmptyBucketsEv.exit, label %while.body.i, !llvm.loop !9

_ZN4base20SampleVectorIterator16SkipEmptyBucketsEv.exit: ; preds = %while.body.i, %if.end6.i, %entry, %while.cond.preheader.i
  ret void
}